target datalayout = "e-m:e-p270:32:32-p271:32:32-p272:64:64-i64:64-i128:128-f80:128-n8:16:32:64-S128"
target triple = "x86_64-pc-linux-gnu"

; Function Attrs: mustprogress uwtable
define noundef double @_ZN6duckdb13RoundToNumberEddNS_12NiceRoundingE(double noundef %0, double noundef %1, i32 noundef %2) #0 {
  %4 = alloca double, align 8
  %5 = alloca double, align 8
  %6 = alloca double, align 8
  %7 = alloca i32, align 4
  %8 = alloca double, align 8
  %9 = alloca i32, align 4
  store double %0, ptr %5, align 8, !tbaa !104
  store double %1, ptr %6, align 8, !tbaa !104
  store i32 %2, ptr %7, align 4, !tbaa !98
  call void @llvm.lifetime.start.p0(i64 8, ptr %8) #8
  %10 = load i32, ptr %7, align 4, !tbaa !98
  %11 = icmp eq i32 %10, 1
  br i1 %11, label %12, label %19

12:                                               ; preds = %3
  %13 = load double, ptr %5, align 8, !tbaa !104
  %14 = load double, ptr %6, align 8, !tbaa !104
  %15 = fdiv double %13, %14
  %16 = call double @llvm.round.f64(double %15)
  %17 = load double, ptr %6, align 8, !tbaa !104
  %18 = fmul double %16, %17
  store double %18, ptr %8, align 8, !tbaa !104
  br label %26

19:                                               ; preds = %3
  %20 = load double, ptr %5, align 8, !tbaa !104
  %21 = load double, ptr %6, align 8, !tbaa !104
  %22 = fdiv double %20, %21
  %23 = call double @llvm.ceil.f64(double %22)
  %24 = load double, ptr %6, align 8, !tbaa !104
  %25 = fmul double %23, %24
  store double %25, ptr %8, align 8, !tbaa !104
  br label %26

26:                                               ; preds = %19, %12
  %27 = load double, ptr %8, align 8, !tbaa !104
  %28 = call noundef zeroext i1 @_ZN6duckdb5Value8IsFiniteIdEEbT_(double noundef %27)
  br i1 %28, label %31, label %29

29:                                               ; preds = %26
  %30 = load double, ptr %5, align 8, !tbaa !104
  store double %30, ptr %4, align 8
  store i32 1, ptr %9, align 4
  br label %33

31:                                               ; preds = %26
  %32 = load double, ptr %8, align 8, !tbaa !104
  store double %32, ptr %4, align 8
  store i32 1, ptr %9, align 4
  br label %33

33:                                               ; preds = %31, %29
  call void @llvm.lifetime.end.p0(i64 8, ptr %8) #8
  %34 = load double, ptr %4, align 8
  ret double %34
}