; Function Attrs: mustprogress uwtable
define noundef double @_ZN6duckdb13RoundToNumberEddNS_12NiceRoundingE(double noundef %0, double noundef %1, i32 noundef %2) local_unnamed_addr #0 {
  %4 = icmp eq i32 %2, 1
  %5 = fdiv double %0, %1
  br i1 %4, label %6, label %8

6:                                                ; preds = %3
  %7 = tail call double @llvm.round.f64(double %5)
  br label %10

8:                                                ; preds = %3
  %9 = tail call double @llvm.ceil.f64(double %5)
  br label %10

10:                                               ; preds = %8, %6
  %.pn = phi double [ %7, %6 ], [ %9, %8 ]
  %.0 = fmul double %1, %.pn
  %11 = tail call noundef zeroext i1 @_ZN6duckdb5Value8IsFiniteIdEEbT_(double noundef %.0)
  %.0. = select i1 %11, double %.0, double %0
  ret double %.0.
}